target datalayout = "e-m:e-p270:32:32-p271:32:32-p272:64:64-i64:64-i128:128-f80:128-n8:16:32:64-S128"
target triple = "x86_64-pc-linux-gnu"

%struct.pollfd = type { i32, i16, i16 }

; Function Attrs: nounwind uwtable
define i32 @ff_network_wait_fd(i32 noundef %0, i32 noundef %1) #0 {
  %3 = alloca i32, align 4
  %4 = alloca i32, align 4
  %5 = alloca i32, align 4
  %6 = alloca %struct.pollfd, align 4
  %7 = alloca i32, align 4
  store i32 %0, ptr %3, align 4, !tbaa !4
  store i32 %1, ptr %4, align 4, !tbaa !4
  call void @llvm.lifetime.start.p0(i64 4, ptr %5) #10
  %8 = load i32, ptr %4, align 4, !tbaa !4
  %9 = icmp ne i32 %8, 0
  %10 = select i1 %9, i32 4, i32 1
  store i32 %10, ptr %5, align 4, !tbaa !4
  call void @llvm.lifetime.start.p0(i64 8, ptr %6) #10
  %11 = getelementptr inbounds nuw %struct.pollfd, ptr %6, i32 0, i32 0
  %12 = load i32, ptr %3, align 4, !tbaa !4
  store i32 %12, ptr %11, align 4, !tbaa !8
  %13 = getelementptr inbounds nuw %struct.pollfd, ptr %6, i32 0, i32 1
  %14 = load i32, ptr %5, align 4, !tbaa !4
  %15 = trunc i32 %14 to i16
  store i16 %15, ptr %13, align 4, !tbaa !11
  %16 = getelementptr inbounds nuw %struct.pollfd, ptr %6, i32 0, i32 2
  store i16 0, ptr %16, align 2, !tbaa !12
  call void @llvm.lifetime.start.p0(i64 4, ptr %7) #10
  %17 = call i32 @poll(ptr noundef %6, i64 noundef 1, i32 noundef 100)
  store i32 %17, ptr %7, align 4, !tbaa !4
  %18 = load i32, ptr %7, align 4, !tbaa !4
  %19 = icmp slt i32 %18, 0
  br i1 %19, label %20, label %24

20:                                               ; preds = %2
  %21 = call ptr @__errno_location() #11
  %22 = load i32, ptr %21, align 4, !tbaa !4
  %23 = sub nsw i32 0, %22
  br label %34

24:                                               ; preds = %2
  %25 = getelementptr inbounds nuw %struct.pollfd, ptr %6, i32 0, i32 2
  %26 = load i16, ptr %25, align 2, !tbaa !12
  %27 = sext i16 %26 to i32
  %28 = load i32, ptr %5, align 4, !tbaa !4
  %29 = or i32 %28, 8
  %30 = or i32 %29, 16
  %31 = and i32 %27, %30
  %32 = icmp ne i32 %31, 0
  %33 = select i1 %32, i32 0, i32 -11
  br label %34

34:                                               ; preds = %24, %20
  %35 = phi i32 [ %23, %20 ], [ %33, %24 ]
  call void @llvm.lifetime.end.p0(i64 4, ptr %7) #10
  call void @llvm.lifetime.end.p0(i64 8, ptr %6) #10
  call void @llvm.lifetime.end.p0(i64 4, ptr %5) #10
  ret i32 %35
}

; Function Attrs: nounwind uwtable
define i32 @ff_network_wait_fd_timeout(i32 noundef %0, i32 noundef %1, i64 noundef %2, ptr noundef %3) #0 {
  %5 = alloca i32, align 4
  %6 = alloca i32, align 4
  %7 = alloca i32, align 4
  %8 = alloca i64, align 8
  %9 = alloca ptr, align 8
  %10 = alloca i32, align 4
  %11 = alloca i64, align 8
  %12 = alloca i32, align 4
  store i32 %0, ptr %6, align 4, !tbaa !4
  store i32 %1, ptr %7, align 4, !tbaa !4
  store i64 %2, ptr %8, align 8, !tbaa !13
  store ptr %3, ptr %9, align 8, !tbaa !15
  call void @llvm.lifetime.start.p0(i64 4, ptr %10) #10
  call void @llvm.lifetime.start.p0(i64 8, ptr %11) #10
  store i64 0, ptr %11, align 8, !tbaa !13
  br label %13

13:                                               ; preds = %44, %4
  br label %14

14:                                               ; preds = %13
  %15 = load ptr, ptr %9, align 8, !tbaa !15
  %16 = call i32 @ff_check_interrupt(ptr noundef %15)
  %17 = icmp ne i32 %16, 0
  br i1 %17, label %18, label %19

18:                                               ; preds = %14
  store i32 -1414092869, ptr %5, align 4
  store i32 1, ptr %12, align 4
  br label %45

19:                                               ; preds = %14
  %20 = load i32, ptr %6, align 4, !tbaa !4
  %21 = load i32, ptr %7, align 4, !tbaa !4
  %22 = call i32 @ff_network_wait_fd(i32 noundef %20, i32 noundef %21)
  store i32 %22, ptr %10, align 4, !tbaa !4
  %23 = load i32, ptr %10, align 4, !tbaa !4
  %24 = icmp ne i32 %23, -11
  br i1 %24, label %25, label %27

25:                                               ; preds = %19
  %26 = load i32, ptr %10, align 4, !tbaa !4
  store i32 %26, ptr %5, align 4
  store i32 1, ptr %12, align 4
  br label %45

27:                                               ; preds = %19
  %28 = load i64, ptr %8, align 8, !tbaa !13
  %29 = icmp sgt i64 %28, 0
  br i1 %29, label %30, label %44

30:                                               ; preds = %27
  %31 = load i64, ptr %11, align 8, !tbaa !13
  %32 = icmp ne i64 %31, 0
  br i1 %32, label %35, label %33

33:                                               ; preds = %30
  %34 = call i64 @av_gettime_relative()
  store i64 %34, ptr %11, align 8, !tbaa !13
  br label %43

35:                                               ; preds = %30
  %36 = call i64 @av_gettime_relative()
  %37 = load i64, ptr %11, align 8, !tbaa !13
  %38 = sub nsw i64 %36, %37
  %39 = load i64, ptr %8, align 8, !tbaa !13
  %40 = icmp sgt i64 %38, %39
  br i1 %40, label %41, label %42

41:                                               ; preds = %35
  store i32 -110, ptr %5, align 4
  store i32 1, ptr %12, align 4
  br label %45

42:                                               ; preds = %35
  br label %43

43:                                               ; preds = %42, %33
  br label %44

44:                                               ; preds = %43, %27
  br label %13

45:                                               ; preds = %41, %25, %18
  call void @llvm.lifetime.end.p0(i64 8, ptr %11) #10
  call void @llvm.lifetime.end.p0(i64 4, ptr %10) #10
  %46 = load i32, ptr %5, align 4
  ret i32 %46
}