; Function Attrs: nounwind uwtable
define range(i32 -2147483647, -2147483648) i32 @ff_network_wait_fd_timeout(i32 noundef %0, i32 noundef %1, i64 noundef %2, ptr noundef %3) local_unnamed_addr #1 {
  %5 = alloca %struct.pollfd, align 4
  %6 = tail call i32 @ff_check_interrupt(ptr noundef %3) #12
  %.not21 = icmp eq i32 %6, 0
  br i1 %.not21, label %.lr.ph, label %.loopexit

.lr.ph:                                           ; preds = %4
  %.not.i = icmp eq i32 %1, 0
  %7 = select i1 %.not.i, i32 1, i32 4
  %8 = getelementptr inbounds nuw i8, ptr %5, i64 4
  %9 = trunc nuw nsw i32 %7 to i16
  %10 = getelementptr inbounds nuw i8, ptr %5, i64 6
  %11 = or disjoint i32 %7, 24
  %12 = icmp sgt i64 %2, 0
  br i1 %12, label %.lr.ph.split.us, label %.lr.ph.split

.lr.ph.split.us:                                  ; preds = %.lr.ph, %26
  %.022.us = phi i64 [ %.1.us, %26 ], [ 0, %.lr.ph ]
  call void @llvm.lifetime.start.p0(i64 8, ptr nonnull %5) #12
  store i32 %0, ptr %5, align 4, !tbaa !4
  store i16 %9, ptr %8, align 4, !tbaa !10
  store i16 0, ptr %10, align 2, !tbaa !11
  %13 = call i32 @poll(ptr noundef nonnull %5, i64 noundef 1, i32 noundef 100) #12
  %14 = icmp slt i32 %13, 0
  br i1 %14, label %ff_network_wait_fd.exit.us, label %15

15:                                               ; preds = %.lr.ph.split.us
  %16 = load i16, ptr %10, align 2, !tbaa !11
  %17 = zext i16 %16 to i32
  %18 = and i32 %11, %17
  %.not5.i.us = icmp eq i32 %18, 0
  br i1 %.not5.i.us, label %ff_network_wait_fd.exit.thread.us, label %ff_network_wait_fd.exit.thread15

ff_network_wait_fd.exit.thread.us:                ; preds = %15
  call void @llvm.lifetime.end.p0(i64 8, ptr nonnull %5) #12
  br label %21

ff_network_wait_fd.exit.us:                       ; preds = %.lr.ph.split.us
  %19 = tail call ptr @__errno_location() #13
  %20 = load i32, ptr %19, align 4, !tbaa !12
  call void @llvm.lifetime.end.p0(i64 8, ptr nonnull %5) #12
  %.not12.us = icmp eq i32 %20, 11
  br i1 %.not12.us, label %21, label %.loopexit.split.loop.exit17

21:                                               ; preds = %ff_network_wait_fd.exit.us, %ff_network_wait_fd.exit.thread.us
  %.not13.us = icmp eq i64 %.022.us, 0
  %22 = call i64 @av_gettime_relative() #12
  br i1 %.not13.us, label %26, label %23

23:                                               ; preds = %21
  %24 = sub nsw i64 %22, %.022.us
  %25 = icmp sgt i64 %24, %2
  br i1 %25, label %.loopexit, label %26

26:                                               ; preds = %21, %23
  %.1.us = phi i64 [ %.022.us, %23 ], [ %22, %21 ]
  %27 = call i32 @ff_check_interrupt(ptr noundef %3) #12
  %.not.us = icmp eq i32 %27, 0
  br i1 %.not.us, label %.lr.ph.split.us, label %.loopexit

.lr.ph.split:                                     ; preds = %.lr.ph, %36
  call void @llvm.lifetime.start.p0(i64 8, ptr nonnull %5) #12
  store i32 %0, ptr %5, align 4, !tbaa !4
  store i16 %9, ptr %8, align 4, !tbaa !10
  store i16 0, ptr %10, align 2, !tbaa !11
  %28 = call i32 @poll(ptr noundef nonnull %5, i64 noundef 1, i32 noundef 100) #12
  %29 = icmp slt i32 %28, 0
  br i1 %29, label %ff_network_wait_fd.exit, label %30

30:                                               ; preds = %.lr.ph.split
  %31 = load i16, ptr %10, align 2, !tbaa !11
  %32 = zext i16 %31 to i32
  %33 = and i32 %11, %32
  %.not5.i = icmp eq i32 %33, 0
  br i1 %.not5.i, label %ff_network_wait_fd.exit.thread, label %ff_network_wait_fd.exit.thread15

ff_network_wait_fd.exit.thread15:                 ; preds = %30, %15
  call void @llvm.lifetime.end.p0(i64 8, ptr nonnull %5) #12
  br label %.loopexit

ff_network_wait_fd.exit.thread:                   ; preds = %30
  call void @llvm.lifetime.end.p0(i64 8, ptr nonnull %5) #12
  br label %36

ff_network_wait_fd.exit:                          ; preds = %.lr.ph.split
  %34 = tail call ptr @__errno_location() #13
  %35 = load i32, ptr %34, align 4, !tbaa !12
  call void @llvm.lifetime.end.p0(i64 8, ptr nonnull %5) #12
  %.not12 = icmp eq i32 %35, 11
  br i1 %.not12, label %36, label %.loopexit.split.loop.exit17

36:                                               ; preds = %ff_network_wait_fd.exit.thread, %ff_network_wait_fd.exit
  %37 = call i32 @ff_check_interrupt(ptr noundef %3) #12
  %.not = icmp eq i32 %37, 0
  br i1 %.not, label %.lr.ph.split, label %.loopexit

.loopexit.split.loop.exit17:                      ; preds = %ff_network_wait_fd.exit, %ff_network_wait_fd.exit.us
  %.us-phi = phi i32 [ %20, %ff_network_wait_fd.exit.us ], [ %35, %ff_network_wait_fd.exit ]
  %38 = sub nsw i32 0, %.us-phi
  br label %.loopexit

.loopexit:                                        ; preds = %36, %26, %23, %.loopexit.split.loop.exit17, %4, %ff_network_wait_fd.exit.thread15
  %.09 = phi i32 [ 0, %ff_network_wait_fd.exit.thread15 ], [ %38, %.loopexit.split.loop.exit17 ], [ -1414092869, %4 ], [ -1414092869, %26 ], [ -110, %23 ], [ -1414092869, %36 ]
  ret i32 %.09
}